; Function Attrs: nounwind uwtable
define noalias noundef ptr @JLI_MemAlloc(i64 noundef %0) local_unnamed_addr #0 {
  %2 = tail call noalias ptr @malloc(i64 noundef %0) #17
  %3 = icmp eq ptr %2, null
  br i1 %3, label %4, label %5

4:                                                ; preds = %1
  tail call void @perror(ptr noundef nonnull @.str) #18
  tail call void @exit(i32 noundef 1) #19
  unreachable

5:                                                ; preds = %1
  ret ptr %2
}